target datalayout = "e-m:e-p270:32:32-p271:32:32-p272:64:64-i64:64-i128:128-f80:128-n8:16:32:64-S128"
target triple = "x86_64-unknown-linux-gnu"

%"class.zmq::epoll_t" = type { %"class.zmq::worker_poller_base_t", i32, %"class.std::vector" }
%"class.zmq::worker_poller_base_t" = type { %"class.zmq::poller_base_t", ptr, %"class.zmq::thread_t" }
%"class.zmq::poller_base_t" = type { ptr, %"class.zmq::clock_t", %"class.std::multimap", %"class.zmq::atomic_counter_t" }
%"class.zmq::clock_t" = type { i64, i64 }
%"class.std::multimap" = type { %"class.std::_Rb_tree" }
%"class.std::_Rb_tree" = type { %"struct.std::_Rb_tree<unsigned long, std::pair<const unsigned long, zmq::poller_base_t::timer_info_t>, std::_Select1st<std::pair<const unsigned long, zmq::poller_base_t::timer_info_t>>, std::less<unsigned long>>::_Rb_tree_impl" }
%"struct.std::_Rb_tree<unsigned long, std::pair<const unsigned long, zmq::poller_base_t::timer_info_t>, std::_Select1st<std::pair<const unsigned long, zmq::poller_base_t::timer_info_t>>, std::less<unsigned long>>::_Rb_tree_impl" = type { %"struct.std::_Rb_tree_key_compare", %"struct.std::_Rb_tree_header" }
%"struct.std::_Rb_tree_key_compare" = type { %"struct.std::less" }
%"struct.std::less" = type { i8 }
%"struct.std::_Rb_tree_header" = type { %"struct.std::_Rb_tree_node_base", i64 }
%"struct.std::_Rb_tree_node_base" = type { i32, ptr, ptr, ptr }
%"class.zmq::atomic_counter_t" = type { %"struct.std::atomic", [4 x i8] }
%"struct.std::atomic" = type { %"struct.std::__atomic_base" }
%"struct.std::__atomic_base" = type { i32 }
%"class.zmq::thread_t" = type { ptr, ptr, [16 x i8], i8, i64, i32, i32, %"class.std::set" }
%"class.std::set" = type { %"class.std::_Rb_tree.0" }
%"class.std::_Rb_tree.0" = type { %"struct.std::_Rb_tree<int, int, std::_Identity<int>, std::less<int>>::_Rb_tree_impl" }
%"struct.std::_Rb_tree<int, int, std::_Identity<int>, std::less<int>>::_Rb_tree_impl" = type { %"struct.std::_Rb_tree_key_compare.4", %"struct.std::_Rb_tree_header" }
%"struct.std::_Rb_tree_key_compare.4" = type { %"struct.std::less.5" }
%"struct.std::less.5" = type { i8 }
%"class.std::vector" = type { %"struct.std::_Vector_base" }
%"struct.std::_Vector_base" = type { %"struct.std::_Vector_base<zmq::epoll_t::poll_entry_t *, std::allocator<zmq::epoll_t::poll_entry_t *>>::_Vector_impl" }
%"struct.std::_Vector_base<zmq::epoll_t::poll_entry_t *, std::allocator<zmq::epoll_t::poll_entry_t *>>::_Vector_impl" = type { %"struct.std::_Vector_base<zmq::epoll_t::poll_entry_t *, std::allocator<zmq::epoll_t::poll_entry_t *>>::_Vector_impl_data" }
%"struct.std::_Vector_base<zmq::epoll_t::poll_entry_t *, std::allocator<zmq::epoll_t::poll_entry_t *>>::_Vector_impl_data" = type { ptr, ptr, ptr }
%"struct.zmq::epoll_t::poll_entry_t" = type { i32, %struct.epoll_event, ptr }
%struct.epoll_event = type <{ i32, %union.epoll_data }>
%union.epoll_data = type { ptr }

@stderr = external global ptr, align 8
@.str = private unnamed_addr constant [12 x i8] c"%s (%s:%d)\0A\00", align 1
@.str.1 = private unnamed_addr constant [105 x i8] c"generated/home/dtcxzyw/WorkSpace/Projects/compilers/llvm-opt-benchmark/bench/libzmq/libzmq/src/epoll.cpp\00", align 1

; Function Attrs: mustprogress uwtable
define void @_ZN3zmq7epoll_t12reset_pollinEPv(ptr noundef nonnull align 8 dereferenceable(224) %this, ptr noundef %handle_) #0 align 2 {
entry:
  %this.addr = alloca ptr, align 8
  %handle_.addr = alloca ptr, align 8
  %pe = alloca ptr, align 8
  %rc = alloca i32, align 4
  %errstr = alloca ptr, align 8
  store ptr %this, ptr %this.addr, align 8
  store ptr %handle_, ptr %handle_.addr, align 8
  %this1 = load ptr, ptr %this.addr, align 8
  call void @_ZNK3zmq20worker_poller_base_t12check_threadEv(ptr noundef nonnull align 8 dereferenceable(192) %this1)
  %0 = load ptr, ptr %handle_.addr, align 8
  store ptr %0, ptr %pe, align 8
  %1 = load ptr, ptr %pe, align 8
  %ev = getelementptr inbounds %"struct.zmq::epoll_t::poll_entry_t", ptr %1, i32 0, i32 1
  %events = getelementptr inbounds %struct.epoll_event, ptr %ev, i32 0, i32 0
  %2 = load i32, ptr %events, align 4
  %and = and i32 %2, -2
  store i32 %and, ptr %events, align 4
  %_epoll_fd = getelementptr inbounds %"class.zmq::epoll_t", ptr %this1, i32 0, i32 1
  %3 = load i32, ptr %_epoll_fd, align 8
  %4 = load ptr, ptr %pe, align 8
  %fd = getelementptr inbounds %"struct.zmq::epoll_t::poll_entry_t", ptr %4, i32 0, i32 0
  %5 = load i32, ptr %fd, align 8
  %6 = load ptr, ptr %pe, align 8
  %ev2 = getelementptr inbounds %"struct.zmq::epoll_t::poll_entry_t", ptr %6, i32 0, i32 1
  %call = call i32 @epoll_ctl(i32 noundef %3, i32 noundef 3, i32 noundef %5, ptr noundef %ev2) #13
  store i32 %call, ptr %rc, align 4
  br label %do.body

do.body:                                          ; preds = %entry
  %7 = load i32, ptr %rc, align 4
  %cmp = icmp ne i32 %7, -1
  %lnot = xor i1 %cmp, true
  br i1 %lnot, label %if.then, label %if.end

if.then:                                          ; preds = %do.body
  %call3 = call ptr @__errno_location() #14
  %8 = load i32, ptr %call3, align 4
  %call4 = call ptr @strerror(i32 noundef %8) #13
  store ptr %call4, ptr %errstr, align 8
  %9 = load ptr, ptr @stderr, align 8
  %10 = load ptr, ptr %errstr, align 8
  %call5 = call i32 (ptr, ptr, ...) @fprintf(ptr noundef %9, ptr noundef @.str, ptr noundef %10, ptr noundef @.str.1, i32 noundef 109)
  %11 = load ptr, ptr @stderr, align 8
  %call6 = call i32 @fflush(ptr noundef %11)
  %12 = load ptr, ptr %errstr, align 8
  call void @_ZN3zmq9zmq_abortEPKc(ptr noundef %12)
  br label %if.end

if.end:                                           ; preds = %if.then, %do.body
  br label %do.end

do.end:                                           ; preds = %if.end
  ret void
}